; Function Attrs: mustprogress ssp uwtable
define internal noundef range(i32 0, 2) i32 @_ZN6open3d1t2io12_GLOBAL__N_121ReadAttributeCallbackIlEEiP15t_ply_argument_(ptr noundef %0) #4 personality ptr @__gxx_personality_v0 {
  %2 = alloca double, align 8
  %3 = alloca ptr, align 8
  %4 = alloca i64, align 8
  call void @llvm.lifetime.start.p0(i64 8, ptr nonnull %3) #38
  call void @llvm.lifetime.start.p0(i64 8, ptr nonnull %4) #38
  %5 = call i32 @ply_get_argument_user_data(ptr noundef %0, ptr noundef nonnull %3, ptr noundef nonnull %4)
  %6 = load ptr, ptr %3, align 8, !tbaa !79
  %7 = load i64, ptr %4, align 8, !tbaa !45
  %.val = load ptr, ptr %6, align 8, !tbaa !69
  %8 = getelementptr inbounds nuw %"class.std::shared_ptr", ptr %.val, i64 %7
  %.val23 = load ptr, ptr %8, align 8, !tbaa !145
  %9 = getelementptr inbounds nuw i8, ptr %.val23, i64 56
  %10 = load i64, ptr %9, align 8, !tbaa !143
  %11 = getelementptr inbounds nuw i8, ptr %.val23, i64 48
  %12 = load i64, ptr %11, align 8, !tbaa !142
  %.not = icmp slt i64 %10, %12
  br i1 %.not, label %13, label %_ZN6open3d7utility24CountingProgressReporter6UpdateEl.exit

13:                                               ; preds = %1
  %14 = getelementptr inbounds nuw i8, ptr %.val23, i64 32
  %15 = load ptr, ptr %14, align 8, !tbaa !141
  %16 = getelementptr inbounds nuw i8, ptr %.val23, i64 40
  %17 = load i32, ptr %16, align 8, !tbaa !114
  %18 = sext i32 %17 to i64
  %19 = mul nsw i64 %10, %18
  %20 = getelementptr inbounds nuw i8, ptr %.val23, i64 44
  %21 = load i32, ptr %20, align 4, !tbaa !116
  %22 = sext i32 %21 to i64
  %23 = call double @ply_get_argument_value(ptr noundef %0)
  %24 = fptosi double %23 to i64
  %25 = getelementptr i64, ptr %15, i64 %19
  %26 = getelementptr i64, ptr %25, i64 %22
  store i64 %24, ptr %26, align 8, !tbaa !45
  %.val17 = load ptr, ptr %8, align 8, !tbaa !145
  %27 = getelementptr inbounds nuw i8, ptr %.val17, i64 56
  %28 = load i64, ptr %27, align 8, !tbaa !143
  %29 = add nsw i64 %28, 1
  store i64 %29, ptr %27, align 8, !tbaa !143
  %30 = getelementptr inbounds nuw i8, ptr %.val17, i64 44
  %31 = load i32, ptr %30, align 4, !tbaa !116
  %32 = icmp eq i32 %31, 0
  %33 = srem i64 %29, 1000
  %34 = icmp eq i64 %33, 0
  %or.cond = select i1 %32, i1 %34, i1 false
  br i1 %or.cond, label %35, label %_ZN6open3d7utility24CountingProgressReporter6UpdateEl.exit

35:                                               ; preds = %13
  %36 = load ptr, ptr %3, align 8, !tbaa !79
  %37 = getelementptr inbounds nuw i8, ptr %36, i64 24
  %38 = load ptr, ptr %37, align 8, !tbaa !162
  %39 = getelementptr inbounds nuw i8, ptr %38, i64 16
  %40 = load ptr, ptr %39, align 8, !tbaa !156
  %.not.i.i.not.i = icmp eq ptr %40, null
  br i1 %.not.i.i.not.i, label %_ZN6open3d7utility24CountingProgressReporter6UpdateEl.exit, label %41

41:                                               ; preds = %35
  %42 = getelementptr inbounds nuw i8, ptr %38, i64 40
  store i64 %29, ptr %42, align 8, !tbaa !809
  %43 = getelementptr inbounds nuw i8, ptr %38, i64 32
  %44 = load i64, ptr %43, align 8, !tbaa !160
  %45 = icmp sgt i64 %44, 0
  br i1 %45, label %46, label %_ZN6open3d7utility24CountingProgressReporter10CallUpdateEd.exit.i

46:                                               ; preds = %41
  %47 = icmp slt i64 %29, %44
  br i1 %47, label %48, label %_ZN6open3d7utility24CountingProgressReporter10CallUpdateEd.exit.i

48:                                               ; preds = %46
  %49 = sitofp i64 %29 to double
  %50 = fmul double %49, 1.000000e+02
  %51 = uitofp nneg i64 %44 to double
  %52 = fdiv double %50, %51
  br label %_ZN6open3d7utility24CountingProgressReporter10CallUpdateEd.exit.i

_ZN6open3d7utility24CountingProgressReporter10CallUpdateEd.exit.i: ; preds = %48, %46, %41
  %.0.i = phi double [ %52, %48 ], [ 0.000000e+00, %41 ], [ 1.000000e+02, %46 ]
  call void @llvm.lifetime.start.p0(i64 8, ptr nonnull %2)
  store double %.0.i, ptr %2, align 8, !tbaa !168
  %53 = getelementptr inbounds nuw i8, ptr %38, i64 24
  %54 = load ptr, ptr %53, align 8, !tbaa !158
  %55 = call noundef zeroext i1 %54(ptr noundef nonnull align 8 dereferenceable(48) %38, ptr noundef nonnull align 8 dereferenceable(8) %2)
  call void @llvm.lifetime.end.p0(i64 8, ptr nonnull %2)
  br label %_ZN6open3d7utility24CountingProgressReporter6UpdateEl.exit

_ZN6open3d7utility24CountingProgressReporter6UpdateEl.exit: ; preds = %_ZN6open3d7utility24CountingProgressReporter10CallUpdateEd.exit.i, %35, %13, %1
  %.0 = phi i32 [ 0, %1 ], [ 1, %13 ], [ 1, %35 ], [ 1, %_ZN6open3d7utility24CountingProgressReporter10CallUpdateEd.exit.i ]
  call void @llvm.lifetime.end.p0(i64 8, ptr nonnull %4) #38
  call void @llvm.lifetime.end.p0(i64 8, ptr nonnull %3) #38
  ret i32 %.0
}